target datalayout = "e-m:e-p270:32:32-p271:32:32-p272:64:64-i64:64-i128:128-f80:128-n8:16:32:64-S128"
target triple = "x86_64-pc-linux-gnu"

%struct.SwsFilterDescriptor = type { ptr, ptr, i32, ptr, ptr }

; Function Attrs: nounwind uwtable
define i32 @ff_init_desc_no_chr(ptr noundef %0, ptr noundef %1, ptr noundef %2) #0 {
  %4 = alloca ptr, align 8
  %5 = alloca ptr, align 8
  %6 = alloca ptr, align 8
  store ptr %0, ptr %4, align 8, !tbaa !4
  store ptr %1, ptr %5, align 8, !tbaa !9
  store ptr %2, ptr %6, align 8, !tbaa !9
  %7 = load ptr, ptr %5, align 8, !tbaa !9
  %8 = load ptr, ptr %4, align 8, !tbaa !4
  %9 = getelementptr inbounds nuw %struct.SwsFilterDescriptor, ptr %8, i32 0, i32 0
  store ptr %7, ptr %9, align 8, !tbaa !23
  %10 = load ptr, ptr %6, align 8, !tbaa !9
  %11 = load ptr, ptr %4, align 8, !tbaa !4
  %12 = getelementptr inbounds nuw %struct.SwsFilterDescriptor, ptr %11, i32 0, i32 1
  store ptr %10, ptr %12, align 8, !tbaa !24
  %13 = load ptr, ptr %4, align 8, !tbaa !4
  %14 = getelementptr inbounds nuw %struct.SwsFilterDescriptor, ptr %13, i32 0, i32 2
  store i32 0, ptr %14, align 8, !tbaa !22
  %15 = load ptr, ptr %4, align 8, !tbaa !4
  %16 = getelementptr inbounds nuw %struct.SwsFilterDescriptor, ptr %15, i32 0, i32 3
  store ptr null, ptr %16, align 8, !tbaa !17
  %17 = load ptr, ptr %4, align 8, !tbaa !4
  %18 = getelementptr inbounds nuw %struct.SwsFilterDescriptor, ptr %17, i32 0, i32 4
  store ptr @no_chr_scale, ptr %18, align 8, !tbaa !25
  ret i32 0
}