; Function Attrs: mustprogress nofree norecurse nosync nounwind willreturn memory(argmem: write) uwtable
define noundef i32 @ff_init_desc_no_chr(ptr noundef writeonly captures(none) initializes((0, 20), (24, 40)) %0, ptr noundef %1, ptr noundef %2) local_unnamed_addr #3 {
  store ptr %1, ptr %0, align 8, !tbaa !21
  %4 = getelementptr inbounds nuw i8, ptr %0, i64 8
  store ptr %2, ptr %4, align 8, !tbaa !22
  %5 = getelementptr inbounds nuw i8, ptr %0, i64 16
  store i32 0, ptr %5, align 8, !tbaa !20
  %6 = getelementptr inbounds nuw i8, ptr %0, i64 24
  store ptr null, ptr %6, align 8, !tbaa !10
  %7 = getelementptr inbounds nuw i8, ptr %0, i64 32
  store ptr @no_chr_scale, ptr %7, align 8, !tbaa !23
  ret i32 0
}